target datalayout = "e-m:e-p270:32:32-p271:32:32-p272:64:64-i64:64-i128:128-f80:128-n8:16:32:64-S128"
target triple = "x86_64-pc-linux-gnu"

; Function Attrs: nounwind uwtable
define internal void @opj_j2k_write_float_to_float64(ptr noundef %0, ptr noundef %1, i32 noundef %2) #0 {
  %4 = alloca ptr, align 8
  %5 = alloca ptr, align 8
  %6 = alloca i32, align 4
  %7 = alloca ptr, align 8
  %8 = alloca ptr, align 8
  %9 = alloca i32, align 4
  %10 = alloca double, align 8
  store ptr %0, ptr %4, align 8, !tbaa !194
  store ptr %1, ptr %5, align 8, !tbaa !194
  store i32 %2, ptr %6, align 4, !tbaa !3
  call void @llvm.lifetime.start.p0(i64 8, ptr %7) #10
  %11 = load ptr, ptr %5, align 8, !tbaa !194
  store ptr %11, ptr %7, align 8, !tbaa !44
  call void @llvm.lifetime.start.p0(i64 8, ptr %8) #10
  %12 = load ptr, ptr %4, align 8, !tbaa !194
  store ptr %12, ptr %8, align 8, !tbaa !133
  call void @llvm.lifetime.start.p0(i64 4, ptr %9) #10
  call void @llvm.lifetime.start.p0(i64 8, ptr %10) #10
  store i32 0, ptr %9, align 4, !tbaa !3
  br label %13

13:                                               ; preds = %26, %3
  %14 = load i32, ptr %9, align 4, !tbaa !3
  %15 = load i32, ptr %6, align 4, !tbaa !3
  %16 = icmp ult i32 %14, %15
  br i1 %16, label %17, label %29

17:                                               ; preds = %13
  %18 = load ptr, ptr %8, align 8, !tbaa !133
  %19 = getelementptr inbounds nuw float, ptr %18, i32 1
  store ptr %19, ptr %8, align 8, !tbaa !133
  %20 = load float, ptr %18, align 4, !tbaa !71
  %21 = fpext float %20 to double
  store double %21, ptr %10, align 8, !tbaa !434
  %22 = load ptr, ptr %7, align 8, !tbaa !44
  %23 = load double, ptr %10, align 8, !tbaa !434
  call void @opj_write_double_LE(ptr noundef %22, double noundef %23)
  %24 = load ptr, ptr %7, align 8, !tbaa !44
  %25 = getelementptr inbounds nuw i8, ptr %24, i64 8
  store ptr %25, ptr %7, align 8, !tbaa !44
  br label %26

26:                                               ; preds = %17
  %27 = load i32, ptr %9, align 4, !tbaa !3
  %28 = add i32 %27, 1
  store i32 %28, ptr %9, align 4, !tbaa !3
  br label %13, !llvm.loop !435

29:                                               ; preds = %13
  call void @llvm.lifetime.end.p0(i64 8, ptr %10) #10
  call void @llvm.lifetime.end.p0(i64 4, ptr %9) #10
  call void @llvm.lifetime.end.p0(i64 8, ptr %8) #10
  call void @llvm.lifetime.end.p0(i64 8, ptr %7) #10
  ret void
}